; Function Attrs: mustprogress nofree norecurse nosync nounwind willreturn memory(argmem: read) uwtable
define internal i32 @huff_cmp(ptr noundef readonly captures(none) %0, ptr noundef readonly captures(none) %1) #5 {
  %3 = getelementptr inbounds nuw i8, ptr %0, i64 4
  %4 = load i32, ptr %3, align 4, !tbaa !55
  %5 = getelementptr inbounds nuw i8, ptr %1, i64 4
  %6 = load i32, ptr %5, align 4, !tbaa !55
  %7 = sub i32 %4, %6
  %8 = shl i32 %7, 8
  %9 = load i16, ptr %0, align 4, !tbaa !65
  %10 = sext i16 %9 to i32
  %11 = add i32 %8, %10
  %12 = load i16, ptr %1, align 4, !tbaa !65
  %13 = sext i16 %12 to i32
  %14 = sub i32 %11, %13
  ret i32 %14
}